target datalayout = "e-m:e-p270:32:32-p271:32:32-p272:64:64-i64:64-i128:128-f80:128-n8:16:32:64-S128"
target triple = "x86_64-pc-linux-gnu"

%struct.RTSPMessageHeader = type { i32, i32, i32, i64, i64, [8 x %struct.RTSPTransportField], i32, [512 x i8], [4096 x i8], [64 x i8], [64 x i8], i32, i32, [256 x i8], [64 x i8], [64 x i8] }
%struct.RTSPTransportField = type { i32, i32, i32, i32, i32, i32, i32, i32, i32, i32, %struct.sockaddr_storage, [47 x i8], i32, i32 }
%struct.sockaddr_storage = type { i16, [118 x i8], i64 }
%struct.AVFormatContext = type { ptr, ptr, ptr, ptr, ptr, i32, i32, ptr, i32, ptr, i32, ptr, ptr, i64, i64, i64, i32, i32, i32, i64, i64, ptr, i32, i32, ptr, i32, i32, i32, i32, ptr, i64, i32, i32, %struct.AVIOInterruptCB, i32, i32, i32, i32, i64, i32, i32, i32, i32, i32, i32, i32, i32, i32, i32, i32, i32, i64, i32, i32, i32, i32, i32, ptr, ptr, ptr, ptr, i32, ptr, ptr, ptr, ptr, i32, ptr, ptr, i64, ptr, ptr, ptr, i64 }
%struct.AVIOInterruptCB = type { ptr, ptr }
%struct.RTSPState = type { ptr, ptr, i32, ptr, i32, i64, i32, [512 x i8], i32, i64, i32, i32, i32, [64 x i8], [128 x i8], %struct.HTTPAuthState, [2048 x i8], ptr, i32, ptr, ptr, [1024 x i8], ptr, i64, [4096 x i8], ptr, i32, i32, ptr, i32, i32, ptr, i32, i64, ptr, i32, i32, i32, i32, i32, i32, i32, i32, i32, i32, i64, i32, ptr, [4 x i8], i32, i32, ptr }
%struct.HTTPAuthState = type { i32, [200 x i8], %struct.DigestParams, i32 }
%struct.DigestParams = type { [300 x i8], [10 x i8], [30 x i8], [300 x i8], [10 x i8], i32 }

@.str.8 = private unnamed_addr constant [20 x i8] c"Range: npt=0.000-\0D\0A\00", align 1
@.str.9 = private unnamed_addr constant [7 x i8] c"RECORD\00", align 1

; Function Attrs: inlinehint nounwind uwtable
define internal i32 @ff_rtsp_averror(i32 noundef %0, i32 noundef %1) #5 {
  %3 = alloca i32, align 4
  %4 = alloca i32, align 4
  store i32 %0, ptr %3, align 4, !tbaa !38
  store i32 %1, ptr %4, align 4, !tbaa !38
  %5 = load i32, ptr %3, align 4, !tbaa !38
  %6 = load i32, ptr %4, align 4, !tbaa !38
  %7 = call i32 @ff_http_averror(i32 noundef %5, i32 noundef %6)
  ret i32 %7
}

; Function Attrs: nounwind uwtable
define internal i32 @rtsp_write_record(ptr noundef %0) #0 {
  %2 = alloca i32, align 4
  %3 = alloca ptr, align 8
  %4 = alloca ptr, align 8
  %5 = alloca %struct.RTSPMessageHeader, align 8
  %6 = alloca ptr, align 8
  %7 = alloca [4096 x i8], align 16
  %8 = alloca i32, align 4
  store ptr %0, ptr %3, align 8, !tbaa !4
  call void @llvm.lifetime.start.p0(i64 8, ptr %4) #8
  %9 = load ptr, ptr %3, align 8, !tbaa !4
  %10 = getelementptr inbounds nuw %struct.AVFormatContext, ptr %9, i32 0, i32 3
  %11 = load ptr, ptr %10, align 8, !tbaa !11
  store ptr %11, ptr %4, align 8, !tbaa !27
  call void @llvm.lifetime.start.p0(i64 6960, ptr %5) #8
  call void @llvm.lifetime.start.p0(i64 8, ptr %6) #8
  store ptr %5, ptr %6, align 8, !tbaa !29
  call void @llvm.lifetime.start.p0(i64 4096, ptr %7) #8
  %12 = getelementptr inbounds [4096 x i8], ptr %7, i64 0, i64 0
  %13 = call i32 (ptr, i64, ptr, ...) @snprintf(ptr noundef %12, i64 noundef 4096, ptr noundef @.str.8) #8
  %14 = load ptr, ptr %3, align 8, !tbaa !4
  %15 = load ptr, ptr %4, align 8, !tbaa !27
  %16 = getelementptr inbounds nuw %struct.RTSPState, ptr %15, i32 0, i32 24
  %17 = getelementptr inbounds [4096 x i8], ptr %16, i64 0, i64 0
  %18 = getelementptr inbounds [4096 x i8], ptr %7, i64 0, i64 0
  %19 = load ptr, ptr %6, align 8, !tbaa !29
  %20 = call i32 @ff_rtsp_send_cmd(ptr noundef %14, ptr noundef @.str.9, ptr noundef %17, ptr noundef %18, ptr noundef %19, ptr noundef null)
  %21 = load ptr, ptr %6, align 8, !tbaa !29
  %22 = getelementptr inbounds nuw %struct.RTSPMessageHeader, ptr %21, i32 0, i32 1
  %23 = load i32, ptr %22, align 4, !tbaa !47
  %24 = icmp ne i32 %23, 200
  br i1 %24, label %25, label %30

25:                                               ; preds = %1
  %26 = load ptr, ptr %6, align 8, !tbaa !29
  %27 = getelementptr inbounds nuw %struct.RTSPMessageHeader, ptr %26, i32 0, i32 1
  %28 = load i32, ptr %27, align 4, !tbaa !47
  %29 = call i32 @ff_rtsp_averror(i32 noundef %28, i32 noundef -1)
  store i32 %29, ptr %2, align 4
  store i32 1, ptr %8, align 4
  br label %33

30:                                               ; preds = %1
  %31 = load ptr, ptr %4, align 8, !tbaa !27
  %32 = getelementptr inbounds nuw %struct.RTSPState, ptr %31, i32 0, i32 4
  store i32 1, ptr %32, align 8, !tbaa !88
  store i32 0, ptr %2, align 4
  store i32 1, ptr %8, align 4
  br label %33

33:                                               ; preds = %30, %25
  call void @llvm.lifetime.end.p0(i64 4096, ptr %7) #8
  call void @llvm.lifetime.end.p0(i64 8, ptr %6) #8
  call void @llvm.lifetime.end.p0(i64 6960, ptr %5) #8
  call void @llvm.lifetime.end.p0(i64 8, ptr %4) #8
  %34 = load i32, ptr %2, align 4
  ret i32 %34
}

; Function Attrs: nounwind uwtable
define internal i32 @rtsp_write_header(ptr noundef %0) #0 {
  %2 = alloca i32, align 4
  %3 = alloca ptr, align 8
  %4 = alloca i32, align 4
  %5 = alloca i32, align 4
  store ptr %0, ptr %3, align 8, !tbaa !4
  call void @llvm.lifetime.start.p0(i64 4, ptr %4) #8
  %6 = load ptr, ptr %3, align 8, !tbaa !4
  %7 = call i32 @ff_rtsp_connect(ptr noundef %6)
  store i32 %7, ptr %4, align 4, !tbaa !38
  %8 = load i32, ptr %4, align 4, !tbaa !38
  %9 = icmp ne i32 %8, 0
  br i1 %9, label %10, label %12

10:                                               ; preds = %1
  %11 = load i32, ptr %4, align 4, !tbaa !38
  store i32 %11, ptr %2, align 4
  store i32 1, ptr %5, align 4
  br label %20

12:                                               ; preds = %1
  %13 = load ptr, ptr %3, align 8, !tbaa !4
  %14 = call i32 @rtsp_write_record(ptr noundef %13)
  %15 = icmp slt i32 %14, 0
  br i1 %15, label %16, label %19

16:                                               ; preds = %12
  %17 = load ptr, ptr %3, align 8, !tbaa !4
  call void @ff_rtsp_close_streams(ptr noundef %17)
  %18 = load ptr, ptr %3, align 8, !tbaa !4
  call void @ff_rtsp_close_connections(ptr noundef %18)
  store i32 -1094995529, ptr %2, align 4
  store i32 1, ptr %5, align 4
  br label %20

19:                                               ; preds = %12
  store i32 0, ptr %2, align 4
  store i32 1, ptr %5, align 4
  br label %20

20:                                               ; preds = %19, %16, %10
  call void @llvm.lifetime.end.p0(i64 4, ptr %4) #8
  %21 = load i32, ptr %2, align 4
  ret i32 %21
}