; Function Attrs: nounwind uwtable
define internal i32 @rtsp_write_header(ptr noundef %0) #0 {
  %2 = alloca %struct.RTSPMessageHeader, align 8
  %3 = alloca [4096 x i8], align 16
  %4 = tail call i32 @ff_rtsp_connect(ptr noundef %0) #6
  %.not = icmp eq i32 %4, 0
  br i1 %.not, label %5, label %16

5:                                                ; preds = %1
  %6 = getelementptr inbounds nuw i8, ptr %0, i64 24
  %7 = load ptr, ptr %6, align 8, !tbaa !4
  call void @llvm.lifetime.start.p0(i64 6960, ptr nonnull %2) #6
  call void @llvm.lifetime.start.p0(i64 4096, ptr nonnull %3) #6
  call void @llvm.memcpy.p0.p0.i64(ptr noundef nonnull align 16 dereferenceable(20) %3, ptr noundef nonnull align 1 dereferenceable(20) @.str.8, i64 20, i1 false)
  %8 = getelementptr inbounds nuw i8, ptr %7, i64 4768
  %9 = call i32 @ff_rtsp_send_cmd(ptr noundef %0, ptr noundef nonnull @.str.9, ptr noundef nonnull %8, ptr noundef nonnull %3, ptr noundef nonnull %2, ptr noundef null) #6
  %10 = getelementptr inbounds nuw i8, ptr %2, i64 4
  %11 = load i32, ptr %10, align 4, !tbaa !43
  %.not.i = icmp eq i32 %11, 200
  br i1 %.not.i, label %rtsp_write_record.exit.thread, label %rtsp_write_record.exit

rtsp_write_record.exit.thread:                    ; preds = %5
  %12 = getelementptr inbounds nuw i8, ptr %7, i64 32
  store i32 1, ptr %12, align 8, !tbaa !67
  call void @llvm.lifetime.end.p0(i64 4096, ptr nonnull %3) #6
  call void @llvm.lifetime.end.p0(i64 6960, ptr nonnull %2) #6
  br label %16

rtsp_write_record.exit:                           ; preds = %5
  %13 = call i32 @ff_http_averror(i32 noundef range(i32 201, 200) %11, i32 noundef -1) #6
  call void @llvm.lifetime.end.p0(i64 4096, ptr nonnull %3) #6
  call void @llvm.lifetime.end.p0(i64 6960, ptr nonnull %2) #6
  %14 = icmp slt i32 %13, 0
  br i1 %14, label %15, label %16

15:                                               ; preds = %rtsp_write_record.exit
  call void @ff_rtsp_close_streams(ptr noundef nonnull %0) #6
  call void @ff_rtsp_close_connections(ptr noundef nonnull %0) #6
  br label %16

16:                                               ; preds = %rtsp_write_record.exit.thread, %rtsp_write_record.exit, %1, %15
  %.0 = phi i32 [ -1094995529, %15 ], [ %4, %1 ], [ 0, %rtsp_write_record.exit ], [ 0, %rtsp_write_record.exit.thread ]
  ret i32 %.0
}